target datalayout = "e-m:e-p270:32:32-p271:32:32-p272:64:64-i64:64-i128:128-f80:128-n8:16:32:64-S128"
target triple = "x86_64-pc-linux-gnu"

%struct.Lpk_Fun_t_ = type { ptr, i32, i32, [32 x i32], i32, [16 x i32], [16 x i8], [0 x i32] }

; Function Attrs: inlinehint nounwind uwtable
define internal i32 @Kit_TruthWordNum(i32 noundef %0) #3 {
  %2 = alloca i32, align 4
  store i32 %0, ptr %2, align 4, !tbaa !3
  %3 = load i32, ptr %2, align 4, !tbaa !3
  %4 = icmp sle i32 %3, 5
  br i1 %4, label %5, label %6

5:                                                ; preds = %1
  br label %10

6:                                                ; preds = %1
  %7 = load i32, ptr %2, align 4, !tbaa !3
  %8 = sub nsw i32 %7, 5
  %9 = shl i32 1, %8
  br label %10

10:                                               ; preds = %6, %5
  %11 = phi i32 [ 1, %5 ], [ %9, %6 ]
  ret i32 %11
}

; Function Attrs: inlinehint nounwind uwtable
define internal ptr @Lpk_FunTruth(ptr noundef %0, i32 noundef %1) #3 {
  %3 = alloca ptr, align 8
  %4 = alloca i32, align 4
  store ptr %0, ptr %3, align 8, !tbaa !7
  store i32 %1, ptr %4, align 4, !tbaa !3
  %5 = load ptr, ptr %3, align 8, !tbaa !7
  %6 = getelementptr inbounds nuw %struct.Lpk_Fun_t_, ptr %5, i32 0, i32 7
  %7 = getelementptr inbounds [0 x i32], ptr %6, i64 0, i64 0
  %8 = load ptr, ptr %3, align 8, !tbaa !7
  %9 = getelementptr inbounds nuw %struct.Lpk_Fun_t_, ptr %8, i32 0, i32 1
  %10 = load i32, ptr %9, align 8
  %11 = lshr i32 %10, 7
  %12 = and i32 %11, 31
  %13 = call i32 @Kit_TruthWordNum(i32 noundef %12)
  %14 = load i32, ptr %4, align 4, !tbaa !3
  %15 = mul nsw i32 %13, %14
  %16 = sext i32 %15 to i64
  %17 = getelementptr inbounds i32, ptr %7, i64 %16
  ret ptr %17
}

; Function Attrs: nounwind uwtable
define void @Lpk_FunComputeCofSupps(ptr noundef %0) #0 {
  %2 = alloca ptr, align 8
  %3 = alloca ptr, align 8
  %4 = alloca ptr, align 8
  %5 = alloca ptr, align 8
  %6 = alloca i32, align 4
  store ptr %0, ptr %2, align 8, !tbaa !7
  call void @llvm.lifetime.start.p0(i64 8, ptr %3) #9
  %7 = load ptr, ptr %2, align 8, !tbaa !7
  %8 = call ptr @Lpk_FunTruth(ptr noundef %7, i32 noundef 0)
  store ptr %8, ptr %3, align 8, !tbaa !14
  call void @llvm.lifetime.start.p0(i64 8, ptr %4) #9
  %9 = load ptr, ptr %2, align 8, !tbaa !7
  %10 = call ptr @Lpk_FunTruth(ptr noundef %9, i32 noundef 1)
  store ptr %10, ptr %4, align 8, !tbaa !14
  call void @llvm.lifetime.start.p0(i64 8, ptr %5) #9
  %11 = load ptr, ptr %2, align 8, !tbaa !7
  %12 = call ptr @Lpk_FunTruth(ptr noundef %11, i32 noundef 2)
  store ptr %12, ptr %5, align 8, !tbaa !14
  call void @llvm.lifetime.start.p0(i64 4, ptr %6) #9
  store i32 0, ptr %6, align 4, !tbaa !3
  br label %13

13:                                               ; preds = %66, %1
  %14 = load i32, ptr %6, align 4, !tbaa !3
  %15 = load ptr, ptr %2, align 8, !tbaa !7
  %16 = getelementptr inbounds nuw %struct.Lpk_Fun_t_, ptr %15, i32 0, i32 1
  %17 = load i32, ptr %16, align 8
  %18 = lshr i32 %17, 7
  %19 = and i32 %18, 31
  %20 = icmp slt i32 %14, %19
  br i1 %20, label %21, label %69

21:                                               ; preds = %13
  %22 = load ptr, ptr %4, align 8, !tbaa !14
  %23 = load ptr, ptr %3, align 8, !tbaa !14
  %24 = load ptr, ptr %2, align 8, !tbaa !7
  %25 = getelementptr inbounds nuw %struct.Lpk_Fun_t_, ptr %24, i32 0, i32 1
  %26 = load i32, ptr %25, align 8
  %27 = lshr i32 %26, 7
  %28 = and i32 %27, 31
  %29 = load i32, ptr %6, align 4, !tbaa !3
  call void @Kit_TruthCofactor0New(ptr noundef %22, ptr noundef %23, i32 noundef %28, i32 noundef %29)
  %30 = load ptr, ptr %5, align 8, !tbaa !14
  %31 = load ptr, ptr %3, align 8, !tbaa !14
  %32 = load ptr, ptr %2, align 8, !tbaa !7
  %33 = getelementptr inbounds nuw %struct.Lpk_Fun_t_, ptr %32, i32 0, i32 1
  %34 = load i32, ptr %33, align 8
  %35 = lshr i32 %34, 7
  %36 = and i32 %35, 31
  %37 = load i32, ptr %6, align 4, !tbaa !3
  call void @Kit_TruthCofactor1New(ptr noundef %30, ptr noundef %31, i32 noundef %36, i32 noundef %37)
  %38 = load ptr, ptr %4, align 8, !tbaa !14
  %39 = load ptr, ptr %2, align 8, !tbaa !7
  %40 = getelementptr inbounds nuw %struct.Lpk_Fun_t_, ptr %39, i32 0, i32 1
  %41 = load i32, ptr %40, align 8
  %42 = lshr i32 %41, 7
  %43 = and i32 %42, 31
  %44 = call i32 @Kit_TruthSupport(ptr noundef %38, i32 noundef %43)
  %45 = load ptr, ptr %2, align 8, !tbaa !7
  %46 = getelementptr inbounds nuw %struct.Lpk_Fun_t_, ptr %45, i32 0, i32 3
  %47 = load i32, ptr %6, align 4, !tbaa !3
  %48 = mul nsw i32 2, %47
  %49 = add nsw i32 %48, 0
  %50 = sext i32 %49 to i64
  %51 = getelementptr inbounds [32 x i32], ptr %46, i64 0, i64 %50
  store i32 %44, ptr %51, align 4, !tbaa !3
  %52 = load ptr, ptr %5, align 8, !tbaa !14
  %53 = load ptr, ptr %2, align 8, !tbaa !7
  %54 = getelementptr inbounds nuw %struct.Lpk_Fun_t_, ptr %53, i32 0, i32 1
  %55 = load i32, ptr %54, align 8
  %56 = lshr i32 %55, 7
  %57 = and i32 %56, 31
  %58 = call i32 @Kit_TruthSupport(ptr noundef %52, i32 noundef %57)
  %59 = load ptr, ptr %2, align 8, !tbaa !7
  %60 = getelementptr inbounds nuw %struct.Lpk_Fun_t_, ptr %59, i32 0, i32 3
  %61 = load i32, ptr %6, align 4, !tbaa !3
  %62 = mul nsw i32 2, %61
  %63 = add nsw i32 %62, 1
  %64 = sext i32 %63 to i64
  %65 = getelementptr inbounds [32 x i32], ptr %60, i64 0, i64 %64
  store i32 %58, ptr %65, align 4, !tbaa !3
  br label %66

66:                                               ; preds = %21
  %67 = load i32, ptr %6, align 4, !tbaa !3
  %68 = add nsw i32 %67, 1
  store i32 %68, ptr %6, align 4, !tbaa !3
  br label %13, !llvm.loop !32

69:                                               ; preds = %13
  %70 = load ptr, ptr %2, align 8, !tbaa !7
  %71 = getelementptr inbounds nuw %struct.Lpk_Fun_t_, ptr %70, i32 0, i32 1
  %72 = load i32, ptr %71, align 8
  %73 = and i32 %72, -1073741825
  %74 = or i32 %73, 1073741824
  store i32 %74, ptr %71, align 8
  call void @llvm.lifetime.end.p0(i64 4, ptr %6) #9
  call void @llvm.lifetime.end.p0(i64 8, ptr %5) #9
  call void @llvm.lifetime.end.p0(i64 8, ptr %4) #9
  call void @llvm.lifetime.end.p0(i64 8, ptr %3) #9
  ret void
}