; Function Attrs: nounwind uwtable
define void @Lpk_FunComputeCofSupps(ptr noundef %0) local_unnamed_addr #5 {
  %2 = getelementptr inbounds nuw i8, ptr %0, i64 228
  %3 = getelementptr inbounds nuw i8, ptr %0, i64 8
  %4 = load i32, ptr %3, align 8
  %5 = lshr i32 %4, 7
  %6 = and i32 %5, 31
  %7 = tail call i32 @llvm.usub.sat.i32(i32 %6, i32 5)
  %8 = shl nuw nsw i32 1, %7
  %9 = zext nneg i32 %8 to i64
  %10 = getelementptr inbounds nuw i32, ptr %2, i64 %9
  %11 = shl nuw nsw i32 2, %7
  %12 = zext nneg i32 %11 to i64
  %13 = getelementptr inbounds nuw i32, ptr %2, i64 %12
  %.not = icmp eq i32 %6, 0
  br i1 %.not, label %._crit_edge, label %.lr.ph

.lr.ph:                                           ; preds = %1
  %14 = getelementptr inbounds nuw i8, ptr %0, i64 16
  br label %15

15:                                               ; preds = %.lr.ph, %15
  %indvars.iv = phi i64 [ 0, %.lr.ph ], [ %indvars.iv.next, %15 ]
  %16 = phi i32 [ %6, %.lr.ph ], [ %35, %15 ]
  %17 = trunc nuw nsw i64 %indvars.iv to i32
  tail call void @Kit_TruthCofactor0New(ptr noundef nonnull %10, ptr noundef nonnull %2, i32 noundef %16, i32 noundef %17) #13
  %18 = load i32, ptr %3, align 8
  %19 = lshr i32 %18, 7
  %20 = and i32 %19, 31
  tail call void @Kit_TruthCofactor1New(ptr noundef nonnull %13, ptr noundef nonnull %2, i32 noundef %20, i32 noundef %17) #13
  %21 = load i32, ptr %3, align 8
  %22 = lshr i32 %21, 7
  %23 = and i32 %22, 31
  %24 = tail call i32 @Kit_TruthSupport(ptr noundef nonnull %10, i32 noundef %23) #13
  %25 = shl nuw nsw i64 %indvars.iv, 1
  %26 = getelementptr inbounds nuw [32 x i32], ptr %14, i64 0, i64 %25
  store i32 %24, ptr %26, align 4, !tbaa !14
  %27 = load i32, ptr %3, align 8
  %28 = lshr i32 %27, 7
  %29 = and i32 %28, 31
  %30 = tail call i32 @Kit_TruthSupport(ptr noundef nonnull %13, i32 noundef %29) #13
  %31 = or disjoint i64 %25, 1
  %32 = getelementptr inbounds nuw [32 x i32], ptr %14, i64 0, i64 %31
  store i32 %30, ptr %32, align 4, !tbaa !14
  %indvars.iv.next = add nuw nsw i64 %indvars.iv, 1
  %33 = load i32, ptr %3, align 8
  %34 = lshr i32 %33, 7
  %35 = and i32 %34, 31
  %36 = zext nneg i32 %35 to i64
  %37 = icmp samesign ult i64 %indvars.iv.next, %36
  br i1 %37, label %15, label %._crit_edge, !llvm.loop !22

._crit_edge:                                      ; preds = %15, %1
  %.lcssa = phi i32 [ %4, %1 ], [ %33, %15 ]
  %38 = or i32 %.lcssa, 1073741824
  store i32 %38, ptr %3, align 8
  ret void
}